; ModuleID = '41/736.c'
source_filename = "41/736.c"
target datalayout = "e-m:e-p270:32:32-p271:32:32-p272:64:64-i64:64-f80:128-n8:16:32:64-S128"
target triple = "x86_64-pc-linux-gnu"

@.str = private unnamed_addr constant [15 x i8] c"%d %d %d %d %d\00", align 1

; Function Attrs: noinline nounwind uwtable
define dso_local i32 @main() #0 {
  %1 = alloca i32, align 4
  %2 = alloca i32, align 4
  %3 = alloca i32, align 4
  %4 = alloca i32, align 4
  %5 = alloca i32, align 4
  %6 = alloca i32, align 4
  store i32 0, i32* %1, align 4
  store i32 1, i32* %2, align 4
  br label %7

7:                                                ; preds = %167, %0
  %8 = load i32, i32* %2, align 4
  %9 = icmp sle i32 %8, 5
  br i1 %9, label %10, label %170

10:                                               ; preds = %7
  store i32 1, i32* %3, align 4
  br label %11

11:                                               ; preds = %163, %10
  %12 = load i32, i32* %3, align 4
  %13 = icmp sle i32 %12, 5
  br i1 %13, label %14, label %166

14:                                               ; preds = %11
  store i32 1, i32* %4, align 4
  br label %15

15:                                               ; preds = %159, %14
  %16 = load i32, i32* %4, align 4
  %17 = icmp sle i32 %16, 5
  br i1 %17, label %18, label %162

18:                                               ; preds = %15
  store i32 1, i32* %5, align 4
  br label %19

19:                                               ; preds = %155, %18
  %20 = load i32, i32* %5, align 4
  %21 = icmp sle i32 %20, 5
  br i1 %21, label %22, label %158

22:                                               ; preds = %19
  store i32 1, i32* %6, align 4
  br label %23

23:                                               ; preds = %151, %22
  %24 = load i32, i32* %6, align 4
  %25 = icmp sle i32 %24, 5
  br i1 %25, label %26, label %154

26:                                               ; preds = %23
  %27 = load i32, i32* %2, align 4
  %28 = load i32, i32* %3, align 4
  %29 = icmp ne i32 %27, %28
  br i1 %29, label %30, label %150

30:                                               ; preds = %26
  %31 = load i32, i32* %2, align 4
  %32 = load i32, i32* %4, align 4
  %33 = icmp ne i32 %31, %32
  br i1 %33, label %34, label %150

34:                                               ; preds = %30
  %35 = load i32, i32* %2, align 4
  %36 = load i32, i32* %5, align 4
  %37 = icmp ne i32 %35, %36
  br i1 %37, label %38, label %150

38:                                               ; preds = %34
  %39 = load i32, i32* %2, align 4
  %40 = load i32, i32* %6, align 4
  %41 = icmp ne i32 %39, %40
  br i1 %41, label %42, label %150

42:                                               ; preds = %38
  %43 = load i32, i32* %3, align 4
  %44 = load i32, i32* %4, align 4
  %45 = icmp ne i32 %43, %44
  br i1 %45, label %46, label %150

46:                                               ; preds = %42
  %47 = load i32, i32* %3, align 4
  %48 = load i32, i32* %5, align 4
  %49 = icmp ne i32 %47, %48
  br i1 %49, label %50, label %150

50:                                               ; preds = %46
  %51 = load i32, i32* %3, align 4
  %52 = load i32, i32* %6, align 4
  %53 = icmp ne i32 %51, %52
  br i1 %53, label %54, label %150

54:                                               ; preds = %50
  %55 = load i32, i32* %4, align 4
  %56 = load i32, i32* %5, align 4
  %57 = icmp ne i32 %55, %56
  br i1 %57, label %58, label %150

58:                                               ; preds = %54
  %59 = load i32, i32* %4, align 4
  %60 = load i32, i32* %6, align 4
  %61 = icmp ne i32 %59, %60
  br i1 %61, label %62, label %150

62:                                               ; preds = %58
  %63 = load i32, i32* %5, align 4
  %64 = load i32, i32* %6, align 4
  %65 = icmp ne i32 %63, %64
  br i1 %65, label %66, label %150

66:                                               ; preds = %62
  %67 = load i32, i32* %6, align 4
  %68 = icmp ne i32 %67, 2
  br i1 %68, label %69, label %150

69:                                               ; preds = %66
  %70 = load i32, i32* %6, align 4
  %71 = icmp ne i32 %70, 3
  br i1 %71, label %72, label %150

72:                                               ; preds = %69
  %73 = load i32, i32* %2, align 4
  %74 = icmp eq i32 %73, 1
  br i1 %74, label %78, label %75

75:                                               ; preds = %72
  %76 = load i32, i32* %2, align 4
  %77 = icmp eq i32 %76, 2
  br i1 %77, label %78, label %82

78:                                               ; preds = %75, %72
  %79 = load i32, i32* %6, align 4
  %80 = icmp ne i32 %79, 1
  br i1 %80, label %81, label %82

81:                                               ; preds = %78
  br label %154

82:                                               ; preds = %78, %75
  %83 = load i32, i32* %2, align 4
  %84 = icmp ne i32 %83, 1
  br i1 %84, label %85, label %92

85:                                               ; preds = %82
  %86 = load i32, i32* %2, align 4
  %87 = icmp ne i32 %86, 2
  br i1 %87, label %88, label %92

88:                                               ; preds = %85
  %89 = load i32, i32* %6, align 4
  %90 = icmp eq i32 %89, 1
  br i1 %90, label %91, label %92

91:                                               ; preds = %88
  br label %154

92:                                               ; preds = %88, %85, %82
  br label %93

93:                                               ; preds = %92
  %94 = load i32, i32* %3, align 4
  %95 = icmp eq i32 %94, 1
  br i1 %95, label %96, label %97

96:                                               ; preds = %93
  br label %154

97:                                               ; preds = %93
  %98 = load i32, i32* %4, align 4
  %99 = icmp eq i32 %98, 1
  br i1 %99, label %103, label %100

100:                                              ; preds = %97
  %101 = load i32, i32* %4, align 4
  %102 = icmp eq i32 %101, 2
  br i1 %102, label %103, label %107

103:                                              ; preds = %100, %97
  %104 = load i32, i32* %2, align 4
  %105 = icmp ne i32 %104, 5
  br i1 %105, label %106, label %107

106:                                              ; preds = %103
  br label %154

107:                                              ; preds = %103, %100
  %108 = load i32, i32* %4, align 4
  %109 = icmp ne i32 %108, 1
  br i1 %109, label %110, label %117

110:                                              ; preds = %107
  %111 = load i32, i32* %4, align 4
  %112 = icmp ne i32 %111, 2
  br i1 %112, label %113, label %117

113:                                              ; preds = %110
  %114 = load i32, i32* %2, align 4
  %115 = icmp eq i32 %114, 5
  br i1 %115, label %116, label %117

116:                                              ; preds = %113
  br label %154

117:                                              ; preds = %113, %110, %107
  br label %118

118:                                              ; preds = %117
  %119 = load i32, i32* %5, align 4
  %120 = icmp eq i32 %119, 2
  br i1 %120, label %121, label %125

121:                                              ; preds = %118
  %122 = load i32, i32* %4, align 4
  %123 = icmp eq i32 %122, 1
  br i1 %123, label %124, label %125

124:                                              ; preds = %121
  br label %154

125:                                              ; preds = %121, %118
  %126 = load i32, i32* %5, align 4
  %127 = icmp ne i32 %126, 1
  br i1 %127, label %128, label %135

128:                                              ; preds = %125
  %129 = load i32, i32* %5, align 4
  %130 = icmp ne i32 %129, 2
  br i1 %130, label %131, label %135

131:                                              ; preds = %128
  %132 = load i32, i32* %4, align 4
  %133 = icmp ne i32 %132, 1
  br i1 %133, label %134, label %135

134:                                              ; preds = %131
  br label %154

135:                                              ; preds = %131, %128, %125
  br label %136

136:                                              ; preds = %135
  %137 = load i32, i32* %6, align 4
  %138 = icmp ne i32 %137, 1
  br i1 %138, label %139, label %143

139:                                              ; preds = %136
  %140 = load i32, i32* %5, align 4
  %141 = icmp eq i32 %140, 1
  br i1 %141, label %142, label %143

142:                                              ; preds = %139
  br label %154

143:                                              ; preds = %139, %136
  %144 = load i32, i32* %2, align 4
  %145 = load i32, i32* %3, align 4
  %146 = load i32, i32* %4, align 4
  %147 = load i32, i32* %5, align 4
  %148 = load i32, i32* %6, align 4
  %149 = call i32 (i8*, ...) @printf(i8* getelementptr inbounds ([15 x i8], [15 x i8]* @.str, i64 0, i64 0), i32 %144, i32 %145, i32 %146, i32 %147, i32 %148)
  br label %150

150:                                              ; preds = %143, %69, %66, %62, %58, %54, %50, %46, %42, %38, %34, %30, %26
  br label %151

151:                                              ; preds = %150
  %152 = load i32, i32* %6, align 4
  %153 = add nsw i32 %152, 1
  store i32 %153, i32* %6, align 4
  br label %23

154:                                              ; preds = %142, %134, %124, %116, %106, %96, %91, %81, %23
  br label %155

155:                                              ; preds = %154
  %156 = load i32, i32* %5, align 4
  %157 = add nsw i32 %156, 1
  store i32 %157, i32* %5, align 4
  br label %19

158:                                              ; preds = %19
  br label %159

159:                                              ; preds = %158
  %160 = load i32, i32* %4, align 4
  %161 = add nsw i32 %160, 1
  store i32 %161, i32* %4, align 4
  br label %15

162:                                              ; preds = %15
  br label %163

163:                                              ; preds = %162
  %164 = load i32, i32* %3, align 4
  %165 = add nsw i32 %164, 1
  store i32 %165, i32* %3, align 4
  br label %11

166:                                              ; preds = %11
  br label %167

167:                                              ; preds = %166
  %168 = load i32, i32* %2, align 4
  %169 = add nsw i32 %168, 1
  store i32 %169, i32* %2, align 4
  br label %7

170:                                              ; preds = %7
  %171 = load i32, i32* %1, align 4
  ret i32 %171
}

declare dso_local i32 @printf(i8*, ...) #1


!llvm.module.flags = !{!0}
!llvm.ident = !{!1}

!0 = !{i32 1, !"wchar_size", i32 4}
!1 = !{!"clang version 10.0.0-4ubuntu1 "}
